target datalayout = "e-m:e-p270:32:32-p271:32:32-p272:64:64-i64:64-i128:128-f80:128-n8:16:32:64-S128"
target triple = "x86_64-pc-linux-gnu"

%struct.SnapBuild = type { i32, ptr, i32, i32, i64, i64, i32, i8, i8, ptr, i64, ptr, i32, %struct.anon, %struct.anon.0 }
%struct.anon = type { i64, i64, i8, ptr }
%struct.anon.0 = type { i64, ptr }

; Function Attrs: nounwind uwtable
define dso_local void @SnapBuildSerializationPoint(ptr noundef %0, i64 noundef %1) #0 {
  %3 = alloca ptr, align 8
  %4 = alloca i64, align 8
  store ptr %0, ptr %3, align 8
  store i64 %1, ptr %4, align 8
  %5 = load ptr, ptr %3, align 8
  %6 = getelementptr inbounds nuw %struct.SnapBuild, ptr %5, i32 0, i32 0
  %7 = load i32, ptr %6, align 8
  %8 = icmp slt i32 %7, 2
  br i1 %8, label %9, label %13

9:                                                ; preds = %2
  %10 = load ptr, ptr %3, align 8
  %11 = load i64, ptr %4, align 8
  %12 = call zeroext i1 @SnapBuildRestore(ptr noundef %10, i64 noundef %11)
  br label %16

13:                                               ; preds = %2
  %14 = load ptr, ptr %3, align 8
  %15 = load i64, ptr %4, align 8
  call void @SnapBuildSerialize(ptr noundef %14, i64 noundef %15)
  br label %16

16:                                               ; preds = %13, %9
  ret void
}