; Function Attrs: nounwind uwtable
define dso_local void @SnapBuildSerializationPoint(ptr noundef captures(none) %0, i64 noundef %1) local_unnamed_addr #0 {
  %3 = load i32, ptr %0, align 8
  %4 = icmp slt i32 %3, 2
  br i1 %4, label %5, label %7

5:                                                ; preds = %2
  %6 = tail call fastcc zeroext i1 @SnapBuildRestore(ptr noundef nonnull %0, i64 noundef %1)
  br label %8

7:                                                ; preds = %2
  tail call fastcc void @SnapBuildSerialize(ptr noundef nonnull %0, i64 noundef %1)
  br label %8

8:                                                ; preds = %7, %5
  ret void
}